; ModuleID = '30/2587.cpp'
source_filename = "30/2587.cpp"
target datalayout = "e-m:e-p270:32:32-p271:32:32-p272:64:64-i64:64-f80:128-n8:16:32:64-S128"
target triple = "x86_64-pc-linux-gnu"

%"class.std::ios_base::Init" = type { i8 }
%"class.std::basic_istream" = type { i32 (...)**, i64, %"class.std::basic_ios" }
%"class.std::basic_ios" = type { %"class.std::ios_base", %"class.std::basic_ostream"*, i8, i8, %"class.std::basic_streambuf"*, %"class.std::ctype"*, %"class.std::num_put"*, %"class.std::num_get"* }
%"class.std::ios_base" = type { i32 (...)**, i64, i64, i32, i32, i32, %"struct.std::ios_base::_Callback_list"*, %"struct.std::ios_base::_Words", [8 x %"struct.std::ios_base::_Words"], i32, %"struct.std::ios_base::_Words"*, %"class.std::locale" }
%"struct.std::ios_base::_Callback_list" = type { %"struct.std::ios_base::_Callback_list"*, void (i32, %"class.std::ios_base"*, i32)*, i32, i32 }
%"struct.std::ios_base::_Words" = type { i8*, i64 }
%"class.std::locale" = type { %"class.std::locale::_Impl"* }
%"class.std::locale::_Impl" = type { i32, %"class.std::locale::facet"**, i64, %"class.std::locale::facet"**, i8** }
%"class.std::locale::facet" = type <{ i32 (...)**, i32, [4 x i8] }>
%"class.std::basic_ostream" = type { i32 (...)**, %"class.std::basic_ios" }
%"class.std::basic_streambuf" = type { i32 (...)**, i8*, i8*, i8*, i8*, i8*, i8*, %"class.std::locale" }
%"class.std::ctype" = type <{ %"class.std::locale::facet.base", [4 x i8], %struct.__locale_struct*, i8, [7 x i8], i32*, i32*, i16*, i8, [256 x i8], [256 x i8], i8, [6 x i8] }>
%"class.std::locale::facet.base" = type <{ i32 (...)**, i32 }>
%struct.__locale_struct = type { [13 x %struct.__locale_data*], i16*, i32*, i32*, [13 x i8*] }
%struct.__locale_data = type opaque
%"class.std::num_put" = type { %"class.std::locale::facet.base", [4 x i8] }
%"class.std::num_get" = type { %"class.std::locale::facet.base", [4 x i8] }

@_ZStL8__ioinit = internal global %"class.std::ios_base::Init" zeroinitializer, align 1
@__dso_handle = external hidden global i8
@_ZSt3cin = external dso_local global %"class.std::basic_istream", align 8
@_ZSt4cout = external dso_local global %"class.std::basic_ostream", align 8
@llvm.global_ctors = appending global [1 x { i32, void ()*, i8* }] [{ i32, void ()*, i8* } { i32 65535, void ()* @_GLOBAL__sub_I_2587.cpp, i8* null }]

; Function Attrs: noinline uwtable
define internal void @__cxx_global_var_init() #0 section ".text.startup" {
  call void @_ZNSt8ios_base4InitC1Ev(%"class.std::ios_base::Init"* @_ZStL8__ioinit)
  %1 = call i32 @__cxa_atexit(void (i8*)* bitcast (void (%"class.std::ios_base::Init"*)* @_ZNSt8ios_base4InitD1Ev to void (i8*)*), i8* getelementptr inbounds (%"class.std::ios_base::Init", %"class.std::ios_base::Init"* @_ZStL8__ioinit, i32 0, i32 0), i8* @__dso_handle) #3
  ret void
}

declare dso_local void @_ZNSt8ios_base4InitC1Ev(%"class.std::ios_base::Init"*) unnamed_addr #1

; Function Attrs: nounwind
declare dso_local void @_ZNSt8ios_base4InitD1Ev(%"class.std::ios_base::Init"*) unnamed_addr #2

; Function Attrs: nounwind
declare dso_local i32 @__cxa_atexit(void (i8*)*, i8*, i8*) #3

; Function Attrs: noinline norecurse uwtable
define dso_local i32 @main() #4 {
  %1 = alloca i32, align 4
  %2 = alloca i32, align 4
  %3 = alloca i32, align 4
  %4 = alloca i32, align 4
  %5 = alloca i32, align 4
  store i32 0, i32* %1, align 4
  store i32 0, i32* %5, align 4
  %6 = call dereferenceable(280) %"class.std::basic_istream"* @_ZNSirsERi(%"class.std::basic_istream"* @_ZSt3cin, i32* dereferenceable(4) %4)
  %7 = load i32, i32* %4, align 4
  %8 = icmp sge i32 %7, 10
  br i1 %8, label %9, label %62

9:                                                ; preds = %0
  store i32 1, i32* %2, align 4
  br label %10

10:                                               ; preds = %56, %9
  %11 = load i32, i32* %2, align 4
  %12 = icmp slt i32 %11, 10
  br i1 %12, label %13, label %59

13:                                               ; preds = %10
  store i32 0, i32* %3, align 4
  br label %14

14:                                               ; preds = %52, %13
  %15 = load i32, i32* %3, align 4
  %16 = icmp slt i32 %15, 10
  br i1 %16, label %17, label %24

17:                                               ; preds = %14
  %18 = load i32, i32* %2, align 4
  %19 = mul nsw i32 10, %18
  %20 = load i32, i32* %3, align 4
  %21 = add nsw i32 %19, %20
  %22 = load i32, i32* %4, align 4
  %23 = icmp sle i32 %21, %22
  br label %24

24:                                               ; preds = %17, %14
  %25 = phi i1 [ false, %14 ], [ %23, %17 ]
  br i1 %25, label %26, label %55

26:                                               ; preds = %24
  %27 = load i32, i32* %2, align 4
  %28 = mul nsw i32 10, %27
  %29 = load i32, i32* %3, align 4
  %30 = add nsw i32 %28, %29
  %31 = srem i32 %30, 7
  %32 = icmp ne i32 %31, 0
  br i1 %32, label %33, label %51

33:                                               ; preds = %26
  %34 = load i32, i32* %2, align 4
  %35 = icmp ne i32 %34, 7
  br i1 %35, label %36, label %51

36:                                               ; preds = %33
  %37 = load i32, i32* %3, align 4
  %38 = icmp ne i32 %37, 7
  br i1 %38, label %39, label %51

39:                                               ; preds = %36
  %40 = load i32, i32* %2, align 4
  %41 = mul nsw i32 10, %40
  %42 = load i32, i32* %3, align 4
  %43 = add nsw i32 %41, %42
  %44 = load i32, i32* %2, align 4
  %45 = mul nsw i32 10, %44
  %46 = load i32, i32* %3, align 4
  %47 = add nsw i32 %45, %46
  %48 = mul nsw i32 %43, %47
  %49 = load i32, i32* %5, align 4
  %50 = add nsw i32 %49, %48
  store i32 %50, i32* %5, align 4
  br label %51

51:                                               ; preds = %39, %36, %33, %26
  br label %52

52:                                               ; preds = %51
  %53 = load i32, i32* %3, align 4
  %54 = add nsw i32 %53, 1
  store i32 %54, i32* %3, align 4
  br label %14

55:                                               ; preds = %24
  br label %56

56:                                               ; preds = %55
  %57 = load i32, i32* %2, align 4
  %58 = add nsw i32 %57, 1
  store i32 %58, i32* %2, align 4
  br label %10

59:                                               ; preds = %10
  %60 = load i32, i32* %5, align 4
  %61 = add nsw i32 %60, 236
  store i32 %61, i32* %5, align 4
  br label %87

62:                                               ; preds = %0
  store i32 0, i32* %3, align 4
  br label %63

63:                                               ; preds = %83, %62
  %64 = load i32, i32* %3, align 4
  %65 = icmp slt i32 %64, 10
  br i1 %65, label %66, label %70

66:                                               ; preds = %63
  %67 = load i32, i32* %3, align 4
  %68 = load i32, i32* %4, align 4
  %69 = icmp sle i32 %67, %68
  br label %70

70:                                               ; preds = %66, %63
  %71 = phi i1 [ false, %63 ], [ %69, %66 ]
  br i1 %71, label %72, label %86

72:                                               ; preds = %70
  %73 = load i32, i32* %3, align 4
  %74 = srem i32 %73, 7
  %75 = icmp ne i32 %74, 0
  br i1 %75, label %76, label %82

76:                                               ; preds = %72
  %77 = load i32, i32* %3, align 4
  %78 = load i32, i32* %3, align 4
  %79 = mul nsw i32 %77, %78
  %80 = load i32, i32* %5, align 4
  %81 = add nsw i32 %80, %79
  store i32 %81, i32* %5, align 4
  br label %82

82:                                               ; preds = %76, %72
  br label %83

83:                                               ; preds = %82
  %84 = load i32, i32* %3, align 4
  %85 = add nsw i32 %84, 1
  store i32 %85, i32* %3, align 4
  br label %63

86:                                               ; preds = %70
  br label %87

87:                                               ; preds = %86, %59
  %88 = load i32, i32* %5, align 4
  %89 = call dereferenceable(272) %"class.std::basic_ostream"* @_ZNSolsEi(%"class.std::basic_ostream"* @_ZSt4cout, i32 %88)
  ret i32 0
}

declare dso_local dereferenceable(280) %"class.std::basic_istream"* @_ZNSirsERi(%"class.std::basic_istream"*, i32* dereferenceable(4)) #1

declare dso_local dereferenceable(272) %"class.std::basic_ostream"* @_ZNSolsEi(%"class.std::basic_ostream"*, i32) #1

; Function Attrs: noinline uwtable
define internal void @_GLOBAL__sub_I_2587.cpp() #0 section ".text.startup" {
  call void @__cxx_global_var_init()
  ret void
}


!llvm.module.flags = !{!0}
!llvm.ident = !{!1}

!0 = !{i32 1, !"wchar_size", i32 4}
!1 = !{!"clang version 10.0.0-4ubuntu1 "}
